; Function Attrs: cold mustprogress nounwind null_pointer_is_valid sspstrong uwtable
define internal void @_ZL20wireshark_cmdarg_errPKcP13__va_list_tag(ptr noundef %0, ptr noundef %1) #7 {
  %3 = load ptr, ptr @stderr, align 8
  %4 = tail call i64 @fwrite(ptr nonnull @.str.34, i64 11, i64 1, ptr %3) #23
  %5 = load ptr, ptr @stderr, align 8
  %6 = tail call i32 @__vfprintf_chk(ptr noundef %5, i32 noundef 2, ptr noundef %0, ptr noundef %1) #19
  %7 = load ptr, ptr @stderr, align 8
  %fputc = tail call i32 @fputc(i32 10, ptr %7)
  ret void
}